; Function Attrs: mustprogress uwtable
define internal fastcc void @_ZL16check_and_get_fnRKN2cv8FileNodeERKNSt7__cxx1112basic_stringIcSt11char_traitsIcESaIcEEESA_(ptr dead_on_unwind noalias nonnull writable align 8 %0, ptr noundef nonnull align 8 dereferenceable(24) %1, ptr noundef nonnull align 8 dereferenceable(32) %2, ptr noundef nonnull align 8 dereferenceable(32) %3) unnamed_addr #3 personality ptr @__gxx_personality_v0 {
  %5 = alloca %"class.cv::FileNode", align 8
  %6 = alloca %"class.std::__cxx11::basic_string", align 8
  %7 = alloca %"class.std::__cxx11::basic_string", align 8
  %8 = tail call noundef zeroext i1 @_ZNK2cv8FileNode5isMapEv(ptr noundef nonnull align 8 dereferenceable(24) %1)
  call void @llvm.lifetime.start.p0(i64 24, ptr nonnull %5) #37
  br i1 %8, label %9, label %.critedge

9:                                                ; preds = %4
  call void @_ZNK2cv8FileNodeixERKNSt7__cxx1112basic_stringIcSt11char_traitsIcESaIcEEE(ptr dead_on_unwind nonnull writable sret(%"class.cv::FileNode") align 8 %5, ptr noundef nonnull align 8 dereferenceable(24) %1, ptr noundef nonnull align 8 dereferenceable(32) %2)
  %10 = call noundef zeroext i1 @_ZNK2cv8FileNode5emptyEv(ptr noundef nonnull align 8 dereferenceable(24) %5)
  call void @llvm.lifetime.end.p0(i64 24, ptr nonnull %5) #37
  br i1 %10, label %11, label %40

.critedge:                                        ; preds = %4
  call void @llvm.lifetime.end.p0(i64 24, ptr nonnull %5) #37
  br label %11

11:                                               ; preds = %.critedge, %9
  %12 = call ptr @__cxa_allocate_exception(i64 16) #37
  call void @llvm.lifetime.start.p0(i64 32, ptr nonnull %6) #37
  call void @llvm.lifetime.start.p0(i64 32, ptr nonnull %7) #37
  invoke void @_ZStplIcSt11char_traitsIcESaIcEENSt7__cxx1112basic_stringIT_T0_T1_EERKS8_PKS5_(ptr dead_on_unwind nonnull writable sret(%"class.std::__cxx11::basic_string") align 8 %7, ptr noundef nonnull align 8 dereferenceable(32) %3, ptr noundef nonnull @.str.142)
          to label %13 unwind label %_ZNSt7__cxx1112basic_stringIcSt11char_traitsIcESaIcEED2Ev.exit18.thread

13:                                               ; preds = %11
  invoke void @_ZStplIcSt11char_traitsIcESaIcEENSt7__cxx1112basic_stringIT_T0_T1_EEOS8_RKS8_(ptr dead_on_unwind nonnull writable sret(%"class.std::__cxx11::basic_string") align 8 %6, ptr noundef nonnull align 8 dereferenceable(32) %7, ptr noundef nonnull align 8 dereferenceable(32) %2)
          to label %14 unwind label %_ZNSt7__cxx1112basic_stringIcSt11char_traitsIcESaIcEED2Ev.exit.thread

14:                                               ; preds = %13
  invoke void @_ZNSt11logic_errorC1ERKNSt7__cxx1112basic_stringIcSt11char_traitsIcESaIcEEE(ptr noundef nonnull align 8 dereferenceable(16) %12, ptr noundef nonnull align 8 dereferenceable(32) %6)
          to label %15 unwind label %17

15:                                               ; preds = %14
  invoke void @__cxa_throw(ptr nonnull %12, ptr nonnull @_ZTISt11logic_error, ptr nonnull @_ZNSt11logic_errorD1Ev) #38
          to label %41 unwind label %17

_ZNSt7__cxx1112basic_stringIcSt11char_traitsIcESaIcEED2Ev.exit18.thread: ; preds = %11
  %16 = landingpad { ptr, i32 }
          cleanup
  br label %.sink.split

17:                                               ; preds = %15, %14
  %.0 = phi i1 [ false, %15 ], [ true, %14 ]
  %18 = landingpad { ptr, i32 }
          cleanup
  %19 = load ptr, ptr %6, align 8, !tbaa !44
  %20 = getelementptr inbounds nuw i8, ptr %6, i64 16
  %21 = icmp eq ptr %19, %20
  br i1 %21, label %_ZNKSt7__cxx1112basic_stringIcSt11char_traitsIcESaIcEE11_M_is_localEv.exit.thread.i.i, label %_ZNKSt7__cxx1112basic_stringIcSt11char_traitsIcESaIcEE11_M_is_localEv.exit.i.i

_ZNKSt7__cxx1112basic_stringIcSt11char_traitsIcESaIcEE11_M_is_localEv.exit.thread.i.i: ; preds = %17
  %22 = getelementptr inbounds nuw i8, ptr %6, i64 8
  %23 = load i64, ptr %22, align 8, !tbaa !47
  %24 = icmp ult i64 %23, 16
  call void @llvm.assume(i1 %24)
  br label %_ZNSt7__cxx1112basic_stringIcSt11char_traitsIcESaIcEED2Ev.exit

_ZNKSt7__cxx1112basic_stringIcSt11char_traitsIcESaIcEE11_M_is_localEv.exit.i.i: ; preds = %17
  call void @_ZdlPv(ptr noundef %19) #40
  br label %_ZNSt7__cxx1112basic_stringIcSt11char_traitsIcESaIcEED2Ev.exit

_ZNSt7__cxx1112basic_stringIcSt11char_traitsIcESaIcEED2Ev.exit: ; preds = %_ZNKSt7__cxx1112basic_stringIcSt11char_traitsIcESaIcEE11_M_is_localEv.exit.i.i, %_ZNKSt7__cxx1112basic_stringIcSt11char_traitsIcESaIcEE11_M_is_localEv.exit.thread.i.i
  %25 = load ptr, ptr %7, align 8, !tbaa !44
  %26 = getelementptr inbounds nuw i8, ptr %7, i64 16
  %27 = icmp eq ptr %25, %26
  br i1 %27, label %_ZNKSt7__cxx1112basic_stringIcSt11char_traitsIcESaIcEE11_M_is_localEv.exit.thread.i.i17, label %_ZNSt7__cxx1112basic_stringIcSt11char_traitsIcESaIcEED2Ev.exit18

_ZNSt7__cxx1112basic_stringIcSt11char_traitsIcESaIcEED2Ev.exit.thread: ; preds = %13
  %28 = landingpad { ptr, i32 }
          cleanup
  %29 = load ptr, ptr %7, align 8, !tbaa !44
  %30 = getelementptr inbounds nuw i8, ptr %7, i64 16
  %31 = icmp eq ptr %29, %30
  br i1 %31, label %_ZNKSt7__cxx1112basic_stringIcSt11char_traitsIcESaIcEE11_M_is_localEv.exit.thread.i.i17.thread, label %_ZNSt7__cxx1112basic_stringIcSt11char_traitsIcESaIcEED2Ev.exit18.thread29

_ZNKSt7__cxx1112basic_stringIcSt11char_traitsIcESaIcEE11_M_is_localEv.exit.thread.i.i17.thread: ; preds = %_ZNSt7__cxx1112basic_stringIcSt11char_traitsIcESaIcEED2Ev.exit.thread
  %32 = getelementptr inbounds nuw i8, ptr %7, i64 8
  %33 = load i64, ptr %32, align 8, !tbaa !47
  %34 = icmp ult i64 %33, 16
  call void @llvm.assume(i1 %34)
  br label %.sink.split

_ZNSt7__cxx1112basic_stringIcSt11char_traitsIcESaIcEED2Ev.exit18.thread29: ; preds = %_ZNSt7__cxx1112basic_stringIcSt11char_traitsIcESaIcEED2Ev.exit.thread
  call void @_ZdlPv(ptr noundef %29) #40
  br label %.sink.split

_ZNKSt7__cxx1112basic_stringIcSt11char_traitsIcESaIcEE11_M_is_localEv.exit.thread.i.i17: ; preds = %_ZNSt7__cxx1112basic_stringIcSt11char_traitsIcESaIcEED2Ev.exit
  %35 = getelementptr inbounds nuw i8, ptr %7, i64 8
  %36 = load i64, ptr %35, align 8, !tbaa !47
  %37 = icmp ult i64 %36, 16
  call void @llvm.assume(i1 %37)
  call void @llvm.lifetime.end.p0(i64 32, ptr nonnull %7) #37
  call void @llvm.lifetime.end.p0(i64 32, ptr nonnull %6) #37
  br i1 %.0, label %38, label %39

_ZNSt7__cxx1112basic_stringIcSt11char_traitsIcESaIcEED2Ev.exit18: ; preds = %_ZNSt7__cxx1112basic_stringIcSt11char_traitsIcESaIcEED2Ev.exit
  call void @_ZdlPv(ptr noundef %25) #40
  call void @llvm.lifetime.end.p0(i64 32, ptr nonnull %7) #37
  call void @llvm.lifetime.end.p0(i64 32, ptr nonnull %6) #37
  br i1 %.0, label %38, label %39

.sink.split:                                      ; preds = %_ZNSt7__cxx1112basic_stringIcSt11char_traitsIcESaIcEED2Ev.exit18.thread, %_ZNSt7__cxx1112basic_stringIcSt11char_traitsIcESaIcEED2Ev.exit18.thread29, %_ZNKSt7__cxx1112basic_stringIcSt11char_traitsIcESaIcEE11_M_is_localEv.exit.thread.i.i17.thread
  %.pn.pn22.ph = phi { ptr, i32 } [ %28, %_ZNKSt7__cxx1112basic_stringIcSt11char_traitsIcESaIcEE11_M_is_localEv.exit.thread.i.i17.thread ], [ %28, %_ZNSt7__cxx1112basic_stringIcSt11char_traitsIcESaIcEED2Ev.exit18.thread29 ], [ %16, %_ZNSt7__cxx1112basic_stringIcSt11char_traitsIcESaIcEED2Ev.exit18.thread ]
  call void @llvm.lifetime.end.p0(i64 32, ptr nonnull %7) #37
  call void @llvm.lifetime.end.p0(i64 32, ptr nonnull %6) #37
  br label %38

38:                                               ; preds = %.sink.split, %_ZNKSt7__cxx1112basic_stringIcSt11char_traitsIcESaIcEE11_M_is_localEv.exit.thread.i.i17, %_ZNSt7__cxx1112basic_stringIcSt11char_traitsIcESaIcEED2Ev.exit18
  %.pn.pn22 = phi { ptr, i32 } [ %18, %_ZNSt7__cxx1112basic_stringIcSt11char_traitsIcESaIcEED2Ev.exit18 ], [ %18, %_ZNKSt7__cxx1112basic_stringIcSt11char_traitsIcESaIcEE11_M_is_localEv.exit.thread.i.i17 ], [ %.pn.pn22.ph, %.sink.split ]
  call void @__cxa_free_exception(ptr %12) #37
  br label %39

39:                                               ; preds = %_ZNKSt7__cxx1112basic_stringIcSt11char_traitsIcESaIcEE11_M_is_localEv.exit.thread.i.i17, %38, %_ZNSt7__cxx1112basic_stringIcSt11char_traitsIcESaIcEED2Ev.exit18
  %.pn.pn21 = phi { ptr, i32 } [ %.pn.pn22, %38 ], [ %18, %_ZNSt7__cxx1112basic_stringIcSt11char_traitsIcESaIcEED2Ev.exit18 ], [ %18, %_ZNKSt7__cxx1112basic_stringIcSt11char_traitsIcESaIcEE11_M_is_localEv.exit.thread.i.i17 ]
  resume { ptr, i32 } %.pn.pn21

40:                                               ; preds = %9
  call void @_ZNK2cv8FileNodeixERKNSt7__cxx1112basic_stringIcSt11char_traitsIcESaIcEEE(ptr dead_on_unwind nonnull writable sret(%"class.cv::FileNode") align 8 %0, ptr noundef nonnull align 8 dereferenceable(24) %1, ptr noundef nonnull align 8 dereferenceable(32) %2)
  ret void

41:                                               ; preds = %15
  unreachable
}